; Function Attrs: nounwind uwtable
define hidden range(i32 -16896, 1) i32 @mbedtls_rsa_check_pub_priv(ptr noundef %0, ptr noundef %1) local_unnamed_addr #0 {
  %3 = tail call i32 @mbedtls_rsa_check_pubkey(ptr noundef %0)
  %.not = icmp eq i32 %3, 0
  br i1 %.not, label %4, label %mbedtls_rsa_check_privkey.exit.thread

4:                                                ; preds = %2
  %5 = tail call i32 @mbedtls_rsa_check_pubkey(ptr noundef %1)
  %.not.i = icmp eq i32 %5, 0
  br i1 %.not.i, label %6, label %mbedtls_rsa_check_privkey.exit.thread

6:                                                ; preds = %4
  %7 = tail call fastcc i32 @rsa_check_context(ptr noundef %1, i32 noundef 1)
  %.not13.i = icmp eq i32 %7, 0
  br i1 %.not13.i, label %8, label %mbedtls_rsa_check_privkey.exit.thread

8:                                                ; preds = %6
  %9 = getelementptr inbounds nuw i8, ptr %1, i64 16
  %10 = getelementptr inbounds nuw i8, ptr %1, i64 64
  %11 = getelementptr inbounds nuw i8, ptr %1, i64 80
  %12 = getelementptr inbounds nuw i8, ptr %1, i64 48
  %13 = getelementptr inbounds nuw i8, ptr %1, i64 32
  %14 = tail call i32 @mbedtls_rsa_validate_params(ptr noundef nonnull %9, ptr noundef nonnull %10, ptr noundef nonnull %11, ptr noundef nonnull %12, ptr noundef nonnull %13, ptr noundef null, ptr noundef null) #14
  %.not14.i = icmp eq i32 %14, 0
  br i1 %.not14.i, label %15, label %mbedtls_rsa_check_privkey.exit.thread

15:                                               ; preds = %8
  %16 = getelementptr inbounds nuw i8, ptr %1, i64 96
  %17 = getelementptr inbounds nuw i8, ptr %1, i64 112
  %18 = getelementptr inbounds nuw i8, ptr %1, i64 128
  %19 = tail call i32 @mbedtls_rsa_validate_crt(ptr noundef nonnull %10, ptr noundef nonnull %11, ptr noundef nonnull %12, ptr noundef nonnull %16, ptr noundef nonnull %17, ptr noundef nonnull %18) #14
  %.not15.i = icmp eq i32 %19, 0
  br i1 %.not15.i, label %mbedtls_rsa_check_privkey.exit, label %mbedtls_rsa_check_privkey.exit.thread

mbedtls_rsa_check_privkey.exit:                   ; preds = %15
  %20 = getelementptr inbounds nuw i8, ptr %0, i64 16
  %21 = tail call i32 @mbedtls_mpi_cmp_mpi(ptr noundef nonnull %20, ptr noundef nonnull %9) #14
  %.not7 = icmp eq i32 %21, 0
  br i1 %.not7, label %22, label %mbedtls_rsa_check_privkey.exit.thread

22:                                               ; preds = %mbedtls_rsa_check_privkey.exit
  %23 = getelementptr inbounds nuw i8, ptr %0, i64 32
  %24 = tail call i32 @mbedtls_mpi_cmp_mpi(ptr noundef nonnull %23, ptr noundef nonnull %13) #14
  %.not8 = icmp eq i32 %24, 0
  %spec.select = select i1 %.not8, i32 0, i32 -16896
  br label %mbedtls_rsa_check_privkey.exit.thread

mbedtls_rsa_check_privkey.exit.thread:            ; preds = %15, %8, %4, %6, %22, %mbedtls_rsa_check_privkey.exit, %2
  %.0 = phi i32 [ -16896, %2 ], [ -16896, %mbedtls_rsa_check_privkey.exit ], [ %spec.select, %22 ], [ -16896, %6 ], [ -16896, %4 ], [ -16896, %8 ], [ -16896, %15 ]
  ret i32 %.0
}